; Function Attrs: mustprogress nofree norecurse nosync nounwind willreturn memory(argmem: write) uwtable
define void @_ZN6google8protobuf9EnumValueC2EPNS0_5ArenaE(ptr nocapture noundef nonnull writeonly align 8 dereferenceable(56) %this, ptr noundef %arena) unnamed_addr #5 align 2 personality ptr @__gxx_personality_v0 {
invoke.cont:
  %_internal_metadata_.i.i = getelementptr inbounds i8, ptr %this, i64 8
  %0 = ptrtoint ptr %arena to i64
  store i64 %0, ptr %_internal_metadata_.i.i, align 8
  store ptr getelementptr inbounds ({ [13 x ptr] }, ptr @_ZTVN6google8protobuf9EnumValueE, i64 0, i32 0, i64 2), ptr %this, align 8
  %1 = getelementptr inbounds i8, ptr %this, i64 16
  %arena_.i.i.i.i = getelementptr inbounds i8, ptr %this, i64 32
  tail call void @llvm.memset.p0.i64(ptr noundef nonnull align 8 dereferenceable(16) %1, i8 0, i64 16, i1 false)
  store ptr %arena, ptr %arena_.i.i.i.i, align 8
  %name_.i.i = getelementptr inbounds i8, ptr %this, i64 40
  store ptr @_ZN6google8protobuf8internal26fixed_address_empty_stringB5cxx11E, ptr %name_.i.i, align 8
  %_cached_size_.i.i = getelementptr inbounds i8, ptr %this, i64 52
  store i32 0, ptr %_cached_size_.i.i, align 4
  %number_.i = getelementptr inbounds i8, ptr %this, i64 48
  store i32 0, ptr %number_.i, align 8
  ret void
}